target datalayout = "e-m:e-p270:32:32-p271:32:32-p272:64:64-i64:64-i128:128-f80:128-n8:16:32:64-S128"
target triple = "x86_64-unknown-linux-gnu"

%"class.icu_75::SimpleTimeZone" = type { %"class.icu_75::BasicTimeZone", i8, i8, i8, i32, i32, i32, i8, i8, i8, i32, i32, i32, i8, i32, i32, i32, i8, ptr, ptr, ptr, ptr }
%"class.icu_75::BasicTimeZone" = type { %"class.icu_75::TimeZone" }
%"class.icu_75::TimeZone" = type { %"class.icu_75::UObject", %"class.icu_75::UnicodeString" }
%"class.icu_75::UObject" = type { ptr }
%"class.icu_75::UnicodeString" = type { %"class.icu_75::Replaceable", %"union.icu_75::UnicodeString::StackBufferOrFields" }
%"class.icu_75::Replaceable" = type { %"class.icu_75::UObject" }
%"union.icu_75::UnicodeString::StackBufferOrFields" = type { %struct.anon.0, [32 x i8] }
%struct.anon.0 = type { i16, i32, i32, ptr }
%"class.std::type_info" = type { ptr, ptr }

; Function Attrs: mustprogress nounwind uwtable
define linkonce_odr noundef ptr @_ZNKSt9type_info4nameEv(ptr noundef nonnull align 8 dereferenceable(16) %this) #0 comdat align 2 {
entry:
  %this.addr = alloca ptr, align 8
  store ptr %this, ptr %this.addr, align 8
  %this1 = load ptr, ptr %this.addr, align 8
  %__name = getelementptr inbounds %"class.std::type_info", ptr %this1, i32 0, i32 1
  %0 = load ptr, ptr %__name, align 8
  %arrayidx = getelementptr inbounds i8, ptr %0, i64 0
  %1 = load i8, ptr %arrayidx, align 1
  %conv = sext i8 %1 to i32
  %cmp = icmp eq i32 %conv, 42
  br i1 %cmp, label %cond.true, label %cond.false

cond.true:                                        ; preds = %entry
  %__name2 = getelementptr inbounds %"class.std::type_info", ptr %this1, i32 0, i32 1
  %2 = load ptr, ptr %__name2, align 8
  %add.ptr = getelementptr inbounds i8, ptr %2, i64 1
  br label %cond.end

cond.false:                                       ; preds = %entry
  %__name3 = getelementptr inbounds %"class.std::type_info", ptr %this1, i32 0, i32 1
  %3 = load ptr, ptr %__name3, align 8
  br label %cond.end

cond.end:                                         ; preds = %cond.false, %cond.true
  %cond = phi ptr [ %add.ptr, %cond.true ], [ %3, %cond.false ]
  ret ptr %cond
}

; Function Attrs: mustprogress nounwind uwtable
define linkonce_odr noundef zeroext i1 @_ZNKSt9type_infoeqERKS_(ptr noundef nonnull align 8 dereferenceable(16) %this, ptr noundef nonnull align 8 dereferenceable(16) %__arg) #0 comdat align 2 {
entry:
  %retval = alloca i1, align 1
  %this.addr = alloca ptr, align 8
  %__arg.addr = alloca ptr, align 8
  store ptr %this, ptr %this.addr, align 8
  store ptr %__arg, ptr %__arg.addr, align 8
  %this1 = load ptr, ptr %this.addr, align 8
  %__name = getelementptr inbounds %"class.std::type_info", ptr %this1, i32 0, i32 1
  %0 = load ptr, ptr %__name, align 8
  %1 = load ptr, ptr %__arg.addr, align 8
  %__name2 = getelementptr inbounds %"class.std::type_info", ptr %1, i32 0, i32 1
  %2 = load ptr, ptr %__name2, align 8
  %cmp = icmp eq ptr %0, %2
  br i1 %cmp, label %if.then, label %if.end

if.then:                                          ; preds = %entry
  store i1 true, ptr %retval, align 1
  br label %return

if.end:                                           ; preds = %entry
  %__name3 = getelementptr inbounds %"class.std::type_info", ptr %this1, i32 0, i32 1
  %3 = load ptr, ptr %__name3, align 8
  %arrayidx = getelementptr inbounds i8, ptr %3, i64 0
  %4 = load i8, ptr %arrayidx, align 1
  %conv = sext i8 %4 to i32
  %cmp4 = icmp ne i32 %conv, 42
  br i1 %cmp4, label %land.rhs, label %land.end

land.rhs:                                         ; preds = %if.end
  %__name5 = getelementptr inbounds %"class.std::type_info", ptr %this1, i32 0, i32 1
  %5 = load ptr, ptr %__name5, align 8
  %6 = load ptr, ptr %__arg.addr, align 8
  %call = call noundef ptr @_ZNKSt9type_info4nameEv(ptr noundef nonnull align 8 dereferenceable(16) %6) #5
  %call6 = call i32 @strcmp(ptr noundef %5, ptr noundef %call) #5
  %cmp7 = icmp eq i32 %call6, 0
  br label %land.end

land.end:                                         ; preds = %land.rhs, %if.end
  %7 = phi i1 [ false, %if.end ], [ %cmp7, %land.rhs ]
  store i1 %7, ptr %retval, align 1
  br label %return

return:                                           ; preds = %land.end, %if.then
  %8 = load i1, ptr %retval, align 1
  ret i1 %8
}

; Function Attrs: mustprogress nounwind uwtable
define linkonce_odr noundef zeroext i1 @_ZNKSt9type_infoneERKS_(ptr noundef nonnull align 8 dereferenceable(16) %this, ptr noundef nonnull align 8 dereferenceable(16) %__arg) #0 comdat align 2 {
entry:
  %this.addr = alloca ptr, align 8
  %__arg.addr = alloca ptr, align 8
  store ptr %this, ptr %this.addr, align 8
  store ptr %__arg, ptr %__arg.addr, align 8
  %this1 = load ptr, ptr %this.addr, align 8
  %0 = load ptr, ptr %__arg.addr, align 8
  %call = call noundef zeroext i1 @_ZNKSt9type_infoeqERKS_(ptr noundef nonnull align 8 dereferenceable(16) %this1, ptr noundef nonnull align 8 dereferenceable(16) %0) #5
  %lnot = xor i1 %call, true
  ret i1 %lnot
}

; Function Attrs: mustprogress uwtable
define noundef signext i8 @_ZNK6icu_7514SimpleTimeZone12hasSameRulesERKNS_8TimeZoneE(ptr noundef nonnull align 8 dereferenceable(160) %this, ptr noundef nonnull align 8 dereferenceable(72) %other) unnamed_addr #1 align 2 {
entry:
  %retval = alloca i8, align 1
  %this.addr = alloca ptr, align 8
  %other.addr = alloca ptr, align 8
  %that = alloca ptr, align 8
  store ptr %this, ptr %this.addr, align 8
  store ptr %other, ptr %other.addr, align 8
  %this1 = load ptr, ptr %this.addr, align 8
  %0 = load ptr, ptr %other.addr, align 8
  %cmp = icmp eq ptr %this1, %0
  br i1 %cmp, label %if.then, label %if.end

if.then:                                          ; preds = %entry
  store i8 1, ptr %retval, align 1
  br label %return

if.end:                                           ; preds = %entry
  %1 = icmp eq ptr %this1, null
  br i1 %1, label %typeid.bad_typeid, label %typeid.end

typeid.bad_typeid:                                ; preds = %if.end
  call void @__cxa_bad_typeid() #7
  unreachable

typeid.end:                                       ; preds = %if.end
  %vtable = load ptr, ptr %this1, align 8
  %2 = getelementptr inbounds ptr, ptr %vtable, i64 -1
  %3 = load ptr, ptr %2, align 8
  %4 = load ptr, ptr %other.addr, align 8
  %vtable2 = load ptr, ptr %4, align 8
  %5 = getelementptr inbounds ptr, ptr %vtable2, i64 -1
  %6 = load ptr, ptr %5, align 8
  %call = call noundef zeroext i1 @_ZNKSt9type_infoneERKS_(ptr noundef nonnull align 8 dereferenceable(16) %3, ptr noundef nonnull align 8 dereferenceable(16) %6) #5
  br i1 %call, label %if.then3, label %if.end4

if.then3:                                         ; preds = %typeid.end
  store i8 0, ptr %retval, align 1
  br label %return

if.end4:                                          ; preds = %typeid.end
  %7 = load ptr, ptr %other.addr, align 8
  store ptr %7, ptr %that, align 8
  %rawOffset = getelementptr inbounds %"class.icu_75::SimpleTimeZone", ptr %this1, i32 0, i32 12
  %8 = load i32, ptr %rawOffset, align 4
  %9 = load ptr, ptr %that, align 8
  %rawOffset5 = getelementptr inbounds %"class.icu_75::SimpleTimeZone", ptr %9, i32 0, i32 12
  %10 = load i32, ptr %rawOffset5, align 4
  %cmp6 = icmp eq i32 %8, %10
  br i1 %cmp6, label %land.lhs.true, label %land.end64

land.lhs.true:                                    ; preds = %if.end4
  %useDaylight = getelementptr inbounds %"class.icu_75::SimpleTimeZone", ptr %this1, i32 0, i32 13
  %11 = load i8, ptr %useDaylight, align 8
  %conv = sext i8 %11 to i32
  %12 = load ptr, ptr %that, align 8
  %useDaylight7 = getelementptr inbounds %"class.icu_75::SimpleTimeZone", ptr %12, i32 0, i32 13
  %13 = load i8, ptr %useDaylight7, align 8
  %conv8 = sext i8 %13 to i32
  %cmp9 = icmp eq i32 %conv, %conv8
  br i1 %cmp9, label %land.rhs, label %land.end64

land.rhs:                                         ; preds = %land.lhs.true
  %useDaylight10 = getelementptr inbounds %"class.icu_75::SimpleTimeZone", ptr %this1, i32 0, i32 13
  %14 = load i8, ptr %useDaylight10, align 8
  %tobool = icmp ne i8 %14, 0
  br i1 %tobool, label %lor.rhs, label %lor.end

lor.rhs:                                          ; preds = %land.rhs
  %dstSavings = getelementptr inbounds %"class.icu_75::SimpleTimeZone", ptr %this1, i32 0, i32 16
  %15 = load i32, ptr %dstSavings, align 4
  %16 = load ptr, ptr %that, align 8
  %dstSavings11 = getelementptr inbounds %"class.icu_75::SimpleTimeZone", ptr %16, i32 0, i32 16
  %17 = load i32, ptr %dstSavings11, align 4
  %cmp12 = icmp eq i32 %15, %17
  br i1 %cmp12, label %land.lhs.true13, label %land.end

land.lhs.true13:                                  ; preds = %lor.rhs
  %startMode = getelementptr inbounds %"class.icu_75::SimpleTimeZone", ptr %this1, i32 0, i32 14
  %18 = load i32, ptr %startMode, align 4
  %19 = load ptr, ptr %that, align 8
  %startMode14 = getelementptr inbounds %"class.icu_75::SimpleTimeZone", ptr %19, i32 0, i32 14
  %20 = load i32, ptr %startMode14, align 4
  %cmp15 = icmp eq i32 %18, %20
  br i1 %cmp15, label %land.lhs.true16, label %land.end

land.lhs.true16:                                  ; preds = %land.lhs.true13
  %startMonth = getelementptr inbounds %"class.icu_75::SimpleTimeZone", ptr %this1, i32 0, i32 1
  %21 = load i8, ptr %startMonth, align 8
  %conv17 = sext i8 %21 to i32
  %22 = load ptr, ptr %that, align 8
  %startMonth18 = getelementptr inbounds %"class.icu_75::SimpleTimeZone", ptr %22, i32 0, i32 1
  %23 = load i8, ptr %startMonth18, align 8
  %conv19 = sext i8 %23 to i32
  %cmp20 = icmp eq i32 %conv17, %conv19
  br i1 %cmp20, label %land.lhs.true21, label %land.end

land.lhs.true21:                                  ; preds = %land.lhs.true16
  %startDay = getelementptr inbounds %"class.icu_75::SimpleTimeZone", ptr %this1, i32 0, i32 2
  %24 = load i8, ptr %startDay, align 1
  %conv22 = sext i8 %24 to i32
  %25 = load ptr, ptr %that, align 8
  %startDay23 = getelementptr inbounds %"class.icu_75::SimpleTimeZone", ptr %25, i32 0, i32 2
  %26 = load i8, ptr %startDay23, align 1
  %conv24 = sext i8 %26 to i32
  %cmp25 = icmp eq i32 %conv22, %conv24
  br i1 %cmp25, label %land.lhs.true26, label %land.end

land.lhs.true26:                                  ; preds = %land.lhs.true21
  %startDayOfWeek = getelementptr inbounds %"class.icu_75::SimpleTimeZone", ptr %this1, i32 0, i32 3
  %27 = load i8, ptr %startDayOfWeek, align 2
  %conv27 = sext i8 %27 to i32
  %28 = load ptr, ptr %that, align 8
  %startDayOfWeek28 = getelementptr inbounds %"class.icu_75::SimpleTimeZone", ptr %28, i32 0, i32 3
  %29 = load i8, ptr %startDayOfWeek28, align 2
  %conv29 = sext i8 %29 to i32
  %cmp30 = icmp eq i32 %conv27, %conv29
  br i1 %cmp30, label %land.lhs.true31, label %land.end

land.lhs.true31:                                  ; preds = %land.lhs.true26
  %startTime = getelementptr inbounds %"class.icu_75::SimpleTimeZone", ptr %this1, i32 0, i32 4
  %30 = load i32, ptr %startTime, align 4
  %31 = load ptr, ptr %that, align 8
  %startTime32 = getelementptr inbounds %"class.icu_75::SimpleTimeZone", ptr %31, i32 0, i32 4
  %32 = load i32, ptr %startTime32, align 4
  %cmp33 = icmp eq i32 %30, %32
  br i1 %cmp33, label %land.lhs.true34, label %land.end

land.lhs.true34:                                  ; preds = %land.lhs.true31
  %startTimeMode = getelementptr inbounds %"class.icu_75::SimpleTimeZone", ptr %this1, i32 0, i32 5
  %33 = load i32, ptr %startTimeMode, align 8
  %34 = load ptr, ptr %that, align 8
  %startTimeMode35 = getelementptr inbounds %"class.icu_75::SimpleTimeZone", ptr %34, i32 0, i32 5
  %35 = load i32, ptr %startTimeMode35, align 8
  %cmp36 = icmp eq i32 %33, %35
  br i1 %cmp36, label %land.lhs.true37, label %land.end

land.lhs.true37:                                  ; preds = %land.lhs.true34
  %endMode = getelementptr inbounds %"class.icu_75::SimpleTimeZone", ptr %this1, i32 0, i32 15
  %36 = load i32, ptr %endMode, align 8
  %37 = load ptr, ptr %that, align 8
  %endMode38 = getelementptr inbounds %"class.icu_75::SimpleTimeZone", ptr %37, i32 0, i32 15
  %38 = load i32, ptr %endMode38, align 8
  %cmp39 = icmp eq i32 %36, %38
  br i1 %cmp39, label %land.lhs.true40, label %land.end

land.lhs.true40:                                  ; preds = %land.lhs.true37
  %endMonth = getelementptr inbounds %"class.icu_75::SimpleTimeZone", ptr %this1, i32 0, i32 7
  %39 = load i8, ptr %endMonth, align 8
  %conv41 = sext i8 %39 to i32
  %40 = load ptr, ptr %that, align 8
  %endMonth42 = getelementptr inbounds %"class.icu_75::SimpleTimeZone", ptr %40, i32 0, i32 7
  %41 = load i8, ptr %endMonth42, align 8
  %conv43 = sext i8 %41 to i32
  %cmp44 = icmp eq i32 %conv41, %conv43
  br i1 %cmp44, label %land.lhs.true45, label %land.end

land.lhs.true45:                                  ; preds = %land.lhs.true40
  %endDay = getelementptr inbounds %"class.icu_75::SimpleTimeZone", ptr %this1, i32 0, i32 8
  %42 = load i8, ptr %endDay, align 1
  %conv46 = sext i8 %42 to i32
  %43 = load ptr, ptr %that, align 8
  %endDay47 = getelementptr inbounds %"class.icu_75::SimpleTimeZone", ptr %43, i32 0, i32 8
  %44 = load i8, ptr %endDay47, align 1
  %conv48 = sext i8 %44 to i32
  %cmp49 = icmp eq i32 %conv46, %conv48
  br i1 %cmp49, label %land.lhs.true50, label %land.end

land.lhs.true50:                                  ; preds = %land.lhs.true45
  %endDayOfWeek = getelementptr inbounds %"class.icu_75::SimpleTimeZone", ptr %this1, i32 0, i32 9
  %45 = load i8, ptr %endDayOfWeek, align 2
  %conv51 = sext i8 %45 to i32
  %46 = load ptr, ptr %that, align 8
  %endDayOfWeek52 = getelementptr inbounds %"class.icu_75::SimpleTimeZone", ptr %46, i32 0, i32 9
  %47 = load i8, ptr %endDayOfWeek52, align 2
  %conv53 = sext i8 %47 to i32
  %cmp54 = icmp eq i32 %conv51, %conv53
  br i1 %cmp54, label %land.lhs.true55, label %land.end

land.lhs.true55:                                  ; preds = %land.lhs.true50
  %endTime = getelementptr inbounds %"class.icu_75::SimpleTimeZone", ptr %this1, i32 0, i32 10
  %48 = load i32, ptr %endTime, align 4
  %49 = load ptr, ptr %that, align 8
  %endTime56 = getelementptr inbounds %"class.icu_75::SimpleTimeZone", ptr %49, i32 0, i32 10
  %50 = load i32, ptr %endTime56, align 4
  %cmp57 = icmp eq i32 %48, %50
  br i1 %cmp57, label %land.lhs.true58, label %land.end

land.lhs.true58:                                  ; preds = %land.lhs.true55
  %endTimeMode = getelementptr inbounds %"class.icu_75::SimpleTimeZone", ptr %this1, i32 0, i32 6
  %51 = load i32, ptr %endTimeMode, align 4
  %52 = load ptr, ptr %that, align 8
  %endTimeMode59 = getelementptr inbounds %"class.icu_75::SimpleTimeZone", ptr %52, i32 0, i32 6
  %53 = load i32, ptr %endTimeMode59, align 4
  %cmp60 = icmp eq i32 %51, %53
  br i1 %cmp60, label %land.rhs61, label %land.end

land.rhs61:                                       ; preds = %land.lhs.true58
  %startYear = getelementptr inbounds %"class.icu_75::SimpleTimeZone", ptr %this1, i32 0, i32 11
  %54 = load i32, ptr %startYear, align 8
  %55 = load ptr, ptr %that, align 8
  %startYear62 = getelementptr inbounds %"class.icu_75::SimpleTimeZone", ptr %55, i32 0, i32 11
  %56 = load i32, ptr %startYear62, align 8
  %cmp63 = icmp eq i32 %54, %56
  br label %land.end

land.end:                                         ; preds = %land.rhs61, %land.lhs.true58, %land.lhs.true55, %land.lhs.true50, %land.lhs.true45, %land.lhs.true40, %land.lhs.true37, %land.lhs.true34, %land.lhs.true31, %land.lhs.true26, %land.lhs.true21, %land.lhs.true16, %land.lhs.true13, %lor.rhs
  %57 = phi i1 [ false, %land.lhs.true58 ], [ false, %land.lhs.true55 ], [ false, %land.lhs.true50 ], [ false, %land.lhs.true45 ], [ false, %land.lhs.true40 ], [ false, %land.lhs.true37 ], [ false, %land.lhs.true34 ], [ false, %land.lhs.true31 ], [ false, %land.lhs.true26 ], [ false, %land.lhs.true21 ], [ false, %land.lhs.true16 ], [ false, %land.lhs.true13 ], [ false, %lor.rhs ], [ %cmp63, %land.rhs61 ]
  br label %lor.end

lor.end:                                          ; preds = %land.end, %land.rhs
  %58 = phi i1 [ true, %land.rhs ], [ %57, %land.end ]
  br label %land.end64

land.end64:                                       ; preds = %lor.end, %land.lhs.true, %if.end4
  %59 = phi i1 [ false, %land.lhs.true ], [ false, %if.end4 ], [ %58, %lor.end ]
  %conv65 = zext i1 %59 to i8
  store i8 %conv65, ptr %retval, align 1
  br label %return

return:                                           ; preds = %land.end64, %if.then3, %if.then
  %60 = load i8, ptr %retval, align 1
  ret i8 %60
}