; Function Attrs: mustprogress nofree nounwind willreturn memory(read, inaccessiblemem: none) uwtable
define noundef signext i8 @_ZNK6icu_7514SimpleTimeZone12hasSameRulesERKNS_8TimeZoneE(ptr noundef nonnull readonly align 8 dereferenceable(160) %this, ptr noundef nonnull readonly align 8 dereferenceable(72) %other) unnamed_addr #8 align 2 {
entry:
  %cmp = icmp eq ptr %this, %other
  br i1 %cmp, label %return, label %typeid.end

typeid.end:                                       ; preds = %entry
  %vtable = load ptr, ptr %this, align 8
  %0 = getelementptr inbounds i8, ptr %vtable, i64 -8
  %1 = load ptr, ptr %0, align 8
  %vtable2 = load ptr, ptr %other, align 8
  %2 = getelementptr inbounds i8, ptr %vtable2, i64 -8
  %3 = load ptr, ptr %2, align 8
  %__name.i.i = getelementptr inbounds i8, ptr %1, i64 8
  %4 = load ptr, ptr %__name.i.i, align 8
  %__name2.i.i = getelementptr inbounds i8, ptr %3, i64 8
  %5 = load ptr, ptr %__name2.i.i, align 8
  %cmp.i.i = icmp eq ptr %4, %5
  br i1 %cmp.i.i, label %if.end4, label %if.end.i.i

if.end.i.i:                                       ; preds = %typeid.end
  %6 = load i8, ptr %4, align 1
  %cmp4.not.i.i = icmp eq i8 %6, 42
  br i1 %cmp4.not.i.i, label %return, label %_ZNKSt9type_infoneERKS_.exit

_ZNKSt9type_infoneERKS_.exit:                     ; preds = %if.end.i.i
  %7 = load i8, ptr %5, align 1
  %cmp.i.i.i = icmp eq i8 %7, 42
  %cond.idx.i.i.i = zext i1 %cmp.i.i.i to i64
  %cond.i.i.i = getelementptr inbounds i8, ptr %5, i64 %cond.idx.i.i.i
  %call6.i.i = tail call i32 @strcmp(ptr noundef nonnull dereferenceable(1) %4, ptr noundef nonnull dereferenceable(1) %cond.i.i.i) #13
  %cmp7.i.i.not = icmp eq i32 %call6.i.i, 0
  br i1 %cmp7.i.i.not, label %if.end4, label %return

if.end4:                                          ; preds = %typeid.end, %_ZNKSt9type_infoneERKS_.exit
  %rawOffset = getelementptr inbounds i8, ptr %this, i64 100
  %8 = load i32, ptr %rawOffset, align 4
  %rawOffset5 = getelementptr inbounds i8, ptr %other, i64 100
  %9 = load i32, ptr %rawOffset5, align 4
  %cmp6 = icmp eq i32 %8, %9
  br i1 %cmp6, label %land.lhs.true, label %return

land.lhs.true:                                    ; preds = %if.end4
  %useDaylight = getelementptr inbounds i8, ptr %this, i64 104
  %10 = load i8, ptr %useDaylight, align 8
  %useDaylight7 = getelementptr inbounds i8, ptr %other, i64 104
  %11 = load i8, ptr %useDaylight7, align 8
  %cmp9 = icmp eq i8 %10, %11
  br i1 %cmp9, label %land.rhs, label %return

land.rhs:                                         ; preds = %land.lhs.true
  %tobool.not = icmp eq i8 %10, 0
  br i1 %tobool.not, label %return, label %lor.rhs

lor.rhs:                                          ; preds = %land.rhs
  %dstSavings = getelementptr inbounds i8, ptr %this, i64 116
  %12 = load i32, ptr %dstSavings, align 4
  %dstSavings11 = getelementptr inbounds i8, ptr %other, i64 116
  %13 = load i32, ptr %dstSavings11, align 4
  %cmp12 = icmp eq i32 %12, %13
  br i1 %cmp12, label %land.lhs.true13, label %return

land.lhs.true13:                                  ; preds = %lor.rhs
  %startMode = getelementptr inbounds i8, ptr %this, i64 108
  %14 = load i32, ptr %startMode, align 4
  %startMode14 = getelementptr inbounds i8, ptr %other, i64 108
  %15 = load i32, ptr %startMode14, align 4
  %cmp15 = icmp eq i32 %14, %15
  br i1 %cmp15, label %land.lhs.true16, label %return

land.lhs.true16:                                  ; preds = %land.lhs.true13
  %startMonth = getelementptr inbounds i8, ptr %this, i64 72
  %16 = load i8, ptr %startMonth, align 8
  %startMonth18 = getelementptr inbounds i8, ptr %other, i64 72
  %17 = load i8, ptr %startMonth18, align 8
  %cmp20 = icmp eq i8 %16, %17
  br i1 %cmp20, label %land.lhs.true21, label %return

land.lhs.true21:                                  ; preds = %land.lhs.true16
  %startDay = getelementptr inbounds i8, ptr %this, i64 73
  %18 = load i8, ptr %startDay, align 1
  %startDay23 = getelementptr inbounds i8, ptr %other, i64 73
  %19 = load i8, ptr %startDay23, align 1
  %cmp25 = icmp eq i8 %18, %19
  br i1 %cmp25, label %land.lhs.true26, label %return

land.lhs.true26:                                  ; preds = %land.lhs.true21
  %startDayOfWeek = getelementptr inbounds i8, ptr %this, i64 74
  %20 = load i8, ptr %startDayOfWeek, align 2
  %startDayOfWeek28 = getelementptr inbounds i8, ptr %other, i64 74
  %21 = load i8, ptr %startDayOfWeek28, align 2
  %cmp30 = icmp eq i8 %20, %21
  br i1 %cmp30, label %land.lhs.true31, label %return

land.lhs.true31:                                  ; preds = %land.lhs.true26
  %startTime = getelementptr inbounds i8, ptr %this, i64 76
  %22 = load i32, ptr %startTime, align 4
  %startTime32 = getelementptr inbounds i8, ptr %other, i64 76
  %23 = load i32, ptr %startTime32, align 4
  %cmp33 = icmp eq i32 %22, %23
  br i1 %cmp33, label %land.lhs.true34, label %return

land.lhs.true34:                                  ; preds = %land.lhs.true31
  %startTimeMode = getelementptr inbounds i8, ptr %this, i64 80
  %24 = load i32, ptr %startTimeMode, align 8
  %startTimeMode35 = getelementptr inbounds i8, ptr %other, i64 80
  %25 = load i32, ptr %startTimeMode35, align 8
  %cmp36 = icmp eq i32 %24, %25
  br i1 %cmp36, label %land.lhs.true37, label %return

land.lhs.true37:                                  ; preds = %land.lhs.true34
  %endMode = getelementptr inbounds i8, ptr %this, i64 112
  %26 = load i32, ptr %endMode, align 8
  %endMode38 = getelementptr inbounds i8, ptr %other, i64 112
  %27 = load i32, ptr %endMode38, align 8
  %cmp39 = icmp eq i32 %26, %27
  br i1 %cmp39, label %land.lhs.true40, label %return

land.lhs.true40:                                  ; preds = %land.lhs.true37
  %endMonth = getelementptr inbounds i8, ptr %this, i64 88
  %28 = load i8, ptr %endMonth, align 8
  %endMonth42 = getelementptr inbounds i8, ptr %other, i64 88
  %29 = load i8, ptr %endMonth42, align 8
  %cmp44 = icmp eq i8 %28, %29
  br i1 %cmp44, label %land.lhs.true45, label %return

land.lhs.true45:                                  ; preds = %land.lhs.true40
  %endDay = getelementptr inbounds i8, ptr %this, i64 89
  %30 = load i8, ptr %endDay, align 1
  %endDay47 = getelementptr inbounds i8, ptr %other, i64 89
  %31 = load i8, ptr %endDay47, align 1
  %cmp49 = icmp eq i8 %30, %31
  br i1 %cmp49, label %land.lhs.true50, label %return

land.lhs.true50:                                  ; preds = %land.lhs.true45
  %endDayOfWeek = getelementptr inbounds i8, ptr %this, i64 90
  %32 = load i8, ptr %endDayOfWeek, align 2
  %endDayOfWeek52 = getelementptr inbounds i8, ptr %other, i64 90
  %33 = load i8, ptr %endDayOfWeek52, align 2
  %cmp54 = icmp eq i8 %32, %33
  br i1 %cmp54, label %land.lhs.true55, label %return

land.lhs.true55:                                  ; preds = %land.lhs.true50
  %endTime = getelementptr inbounds i8, ptr %this, i64 92
  %34 = load i32, ptr %endTime, align 4
  %endTime56 = getelementptr inbounds i8, ptr %other, i64 92
  %35 = load i32, ptr %endTime56, align 4
  %cmp57 = icmp eq i32 %34, %35
  br i1 %cmp57, label %land.lhs.true58, label %return

land.lhs.true58:                                  ; preds = %land.lhs.true55
  %endTimeMode = getelementptr inbounds i8, ptr %this, i64 84
  %36 = load i32, ptr %endTimeMode, align 4
  %endTimeMode59 = getelementptr inbounds i8, ptr %other, i64 84
  %37 = load i32, ptr %endTimeMode59, align 4
  %cmp60 = icmp eq i32 %36, %37
  br i1 %cmp60, label %land.rhs61, label %return

land.rhs61:                                       ; preds = %land.lhs.true58
  %startYear = getelementptr inbounds i8, ptr %this, i64 96
  %38 = load i32, ptr %startYear, align 8
  %startYear62 = getelementptr inbounds i8, ptr %other, i64 96
  %39 = load i32, ptr %startYear62, align 8
  %cmp63 = icmp eq i32 %38, %39
  %40 = zext i1 %cmp63 to i8
  br label %return

return:                                           ; preds = %if.end.i.i, %if.end4, %land.lhs.true, %lor.rhs, %land.lhs.true13, %land.lhs.true16, %land.lhs.true21, %land.lhs.true26, %land.lhs.true31, %land.lhs.true34, %land.lhs.true37, %land.lhs.true40, %land.lhs.true45, %land.lhs.true50, %land.lhs.true55, %land.lhs.true58, %land.rhs61, %land.rhs, %_ZNKSt9type_infoneERKS_.exit, %entry
  %retval.0 = phi i8 [ 1, %entry ], [ 0, %_ZNKSt9type_infoneERKS_.exit ], [ 0, %land.lhs.true ], [ 0, %if.end4 ], [ 1, %land.rhs ], [ 0, %land.lhs.true58 ], [ 0, %land.lhs.true55 ], [ 0, %land.lhs.true50 ], [ 0, %land.lhs.true45 ], [ 0, %land.lhs.true40 ], [ 0, %land.lhs.true37 ], [ 0, %land.lhs.true34 ], [ 0, %land.lhs.true31 ], [ 0, %land.lhs.true26 ], [ 0, %land.lhs.true21 ], [ 0, %land.lhs.true16 ], [ 0, %land.lhs.true13 ], [ 0, %lor.rhs ], [ %40, %land.rhs61 ], [ 0, %if.end.i.i ]
  ret i8 %retval.0
}